; Function Attrs: mustprogress uwtable
define void @_ZN10open_spiel9coin_game9CoinState27ApplyAssignPreferenceActionEl(ptr noundef nonnull align 8 dereferenceable(288) %0, i64 noundef %1) local_unnamed_addr #3 align 2 personality ptr @__gxx_personality_v0 {
  %3 = alloca i64, align 8
  %4 = alloca i32, align 4
  %5 = alloca %"class.std::__cxx11::basic_string", align 8
  %6 = alloca i32, align 4
  %7 = alloca i32, align 4
  store i64 %1, ptr %3, align 8
  %8 = getelementptr inbounds nuw i8, ptr %0, i64 64
  %9 = load ptr, ptr %8, align 8
  %10 = getelementptr inbounds nuw i8, ptr %9, i64 296
  %11 = load i32, ptr %10, align 8
  store i32 %11, ptr %4, align 4
  %12 = sext i32 %11 to i64
  %13 = icmp slt i64 %1, %12
  br i1 %13, label %18, label %14

14:                                               ; preds = %2
  store i32 249, ptr %6, align 4
  call void @_ZN10open_spiel8internal11SpielStrCatIJRA138_KcRA2_S2_iS6_RA42_S2_RA12_S2_RA4_S2_RlRA34_S2_RiEEENSt7__cxx1112basic_stringIcSt11char_traitsIcESaIcEEEDpOT_(ptr dead_on_unwind nonnull writable sret(%"class.std::__cxx11::basic_string") align 8 %5, ptr noundef nonnull align 1 dereferenceable(138) @.str.14, ptr noundef nonnull align 1 dereferenceable(2) @.str.15, ptr noundef nonnull align 4 dereferenceable(4) %6, ptr noundef nonnull align 1 dereferenceable(2) @.str.16, ptr noundef nonnull align 1 dereferenceable(42) @.str.24, ptr noundef nonnull align 1 dereferenceable(12) @.str.25, ptr noundef nonnull align 1 dereferenceable(4) @.str.19, ptr noundef nonnull align 8 dereferenceable(8) %3, ptr noundef nonnull align 1 dereferenceable(34) @.str.26, ptr noundef nonnull align 4 dereferenceable(4) %4)
  invoke void @_ZN10open_spiel15SpielFatalErrorERKNSt7__cxx1112basic_stringIcSt11char_traitsIcESaIcEEE(ptr noundef nonnull align 8 dereferenceable(32) %5) #25
          to label %15 unwind label %16

15:                                               ; preds = %14
  unreachable

16:                                               ; preds = %14
  %17 = landingpad { ptr, i32 }
          cleanup
  call void @_ZNSt7__cxx1112basic_stringIcSt11char_traitsIcESaIcEED1Ev(ptr noundef nonnull align 8 dereferenceable(32) %5) #26
  resume { ptr, i32 } %17

18:                                               ; preds = %2
  %19 = trunc i64 %1 to i32
  %20 = getelementptr inbounds nuw i8, ptr %0, i64 192
  %21 = getelementptr inbounds nuw i8, ptr %0, i64 72
  %22 = getelementptr inbounds i8, ptr %0, i64 168
  %23 = load i32, ptr %22, align 8
  %24 = sext i32 %23 to i64
  %25 = load ptr, ptr %20, align 8
  %26 = getelementptr inbounds i32, ptr %25, i64 %24
  store i32 %19, ptr %26, align 4
  %27 = load i32, ptr %22, align 8
  %28 = add nsw i32 %27, 1
  store i32 %28, ptr %22, align 8
  store i32 %19, ptr %7, align 4
  %29 = call noundef i64 @_ZNSt8_Rb_treeIiiSt9_IdentityIiESt4lessIiESaIiEE5eraseERKi(ptr noundef nonnull align 8 dereferenceable(48) %21, ptr noundef nonnull align 4 dereferenceable(4) %7)
  ret void
}